Certificate:
    Data:
        Version: 3 (0x2)
        Serial Number: 1 (0x1)
        Signature Algorithm: sha1WithRSAEncryption
        Issuer: C=CH, ST=VD, L=Lausanne, O=c2corg, CN=c2corg CA/emailAddress=dev@camptocamp.org
        Validity
            Not Before: Dec 28 22:18:34 2012 GMT
            Not After : Dec 26 22:18:34 2022 GMT
        Subject: C=CH, ST=VD, L=Lausanne, O=c2corg, CN=c2corg/emailAddress=dev@camptocamp.org
        Subject Public Key Info:
            Public Key Algorithm: rsaEncryption
            RSA Public Key: (1024 bit)
                Modulus (1024 bit):
                    00:c0:f6:6d:10:78:74:ac:f9:f9:5e:0c:8f:2a:d8:
                    8f:fa:41:48:17:ef:8e:e5:65:d0:62:f9:97:90:eb:
                    33:b2:ab:dd:e0:78:d8:b7:21:6d:9a:93:13:7b:3b:
                    57:d0:56:3a:4d:08:ca:b7:60:a9:06:70:b5:78:9d:
                    49:45:bb:db:42:dc:88:99:a2:65:8a:ae:32:3c:08:
                    98:74:60:f6:34:a2:a0:81:cd:ed:c9:cb:9a:53:35:
                    31:c7:cd:8b:0d:a3:ce:90:71:31:c9:71:77:77:f3:
                    18:67:c6:f5:6d:ed:97:5d:c3:b7:4b:9c:23:c0:60:
                    7b:84:c7:36:27:e9:87:6d:8f
                Exponent: 65537 (0x10001)
        X509v3 extensions:
            X509v3 Basic Constraints: 
                CA:FALSE
            Netscape Cert Type: 
                SSL Server
            Netscape Comment: 
                Easy-RSA Generated Server Certificate
            X509v3 Subject Key Identifier: 
                A5:BC:23:D7:C4:70:B4:79:07:88:D3:B2:E0:6E:F3:B7:AA:C6:92:37
            X509v3 Authority Key Identifier: 
                keyid:2B:A9:0A:07:F1:24:16:01:70:3D:2F:08:DA:19:2D:CA:1F:8D:A5:B2
                DirName:/C=CH/ST=VD/L=Lausanne/O=c2corg/CN=c2corg CA/emailAddress=dev@camptocamp.org
                serial:96:AD:D2:7F:12:8C:DE:87

            X509v3 Extended Key Usage: 
                TLS Web Server Authentication
            X509v3 Key Usage: 
                Digital Signature, Key Encipherment
    Signature Algorithm: sha1WithRSAEncryption
        b3:65:b0:e8:65:ab:9d:8c:5e:a5:b3:0e:3c:e3:51:fe:4f:50:
        8c:2f:91:51:94:a0:10:28:8e:48:ab:50:3a:5b:6f:3c:d0:b9:
        d7:2b:5c:9c:7b:2b:96:c4:28:f3:35:d9:f1:05:82:53:bb:0e:
        3f:f2:df:fe:2b:31:d8:6c:52:75:f8:d4:28:21:99:90:dd:09:
        c9:84:14:f4:f3:cd:00:3a:fc:1f:d3:e4:12:35:df:8c:3c:f6:
        99:59:74:cb:de:a0:1e:de:39:31:d7:4e:a5:7e:da:92:d7:f6:
        a4:0d:d1:2b:e3:5c:25:eb:9c:6d:af:01:39:7a:b3:48:e1:07:
        92:07
-----BEGIN CERTIFICATE-----
MIIDojCCAwugAwIBAgIBATANBgkqhkiG9w0BAQUFADB1MQswCQYDVQQGEwJDSDEL
MAkGA1UECBMCVkQxETAPBgNVBAcTCExhdXNhbm5lMQ8wDQYDVQQKEwZjMmNvcmcx
EjAQBgNVBAMTCWMyY29yZyBDQTEhMB8GCSqGSIb3DQEJARYSZGV2QGNhbXB0b2Nh
bXAub3JnMB4XDTEyMTIyODIyMTgzNFoXDTIyMTIyNjIyMTgzNFowcjELMAkGA1UE
BhMCQ0gxCzAJBgNVBAgTAlZEMREwDwYDVQQHEwhMYXVzYW5uZTEPMA0GA1UEChMG
YzJjb3JnMQ8wDQYDVQQDEwZjMmNvcmcxITAfBgkqhkiG9w0BCQEWEmRldkBjYW1w
dG9jYW1wLm9yZzCBnzANBgkqhkiG9w0BAQEFAAOBjQAwgYkCgYEAwPZtEHh0rPn5
XgyPKtiP+kFIF++O5WXQYvmXkOszsqvd4HjYtyFtmpMTeztX0FY6TQjKt2CpBnC1
eJ1JRbvbQtyImaJliq4yPAiYdGD2NKKggc3tycuaUzUxx82LDaPOkHExyXF3d/MY
Z8b1be2XXcO3S5wjwGB7hMc2J+mHbY8CAwEAAaOCAUMwggE/MAkGA1UdEwQCMAAw
EQYJYIZIAYb4QgEBBAQDAgZAMDQGCWCGSAGG+EIBDQQnFiVFYXN5LVJTQSBHZW5l
cmF0ZWQgU2VydmVyIENlcnRpZmljYXRlMB0GA1UdDgQWBBSlvCPXxHC0eQeI07Lg
bvO3qsaSNzCBpwYDVR0jBIGfMIGcgBQrqQoH8SQWAXA9LwjaGS3KH42lsqF5pHcw
dTELMAkGA1UEBhMCQ0gxCzAJBgNVBAgTAlZEMREwDwYDVQQHEwhMYXVzYW5uZTEP
MA0GA1UEChMGYzJjb3JnMRIwEAYDVQQDEwljMmNvcmcgQ0ExITAfBgkqhkiG9w0B
CQEWEmRldkBjYW1wdG9jYW1wLm9yZ4IJAJat0n8SjN6HMBMGA1UdJQQMMAoGCCsG
AQUFBwMBMAsGA1UdDwQEAwIFoDANBgkqhkiG9w0BAQUFAAOBgQCzZbDoZaudjF6l
sw4841H+T1CML5FRlKAQKI5Iq1A6W2880LnXK1yceyuWxCjzNdnxBYJTuw4/8t/+
KzHYbFJ1+NQoIZmQ3QnJhBT0880AOvwf0+QSNd+MPPaZWXTL3qAe3jkx106lftqS
1/akDdEr41wl65xtrwE5erNI4QeSBw==
-----END CERTIFICATE-----
